target datalayout = "e-m:e-p270:32:32-p271:32:32-p272:64:64-i64:64-i128:128-f80:128-n8:16:32:64-S128"
target triple = "x86_64-pc-linux-gnu"

%"class.clang::ProgramPoint" = type { ptr, %"class.llvm::PointerIntPair.122", %"class.llvm::PointerIntPair.124", %"class.llvm::PointerIntPair.126", %"class.clang::CFGBlock::ElementRefImpl" }
%"class.llvm::PointerIntPair.122" = type { %"struct.llvm::detail::PunnedPointer.123" }
%"struct.llvm::detail::PunnedPointer.123" = type { [8 x i8] }
%"class.llvm::PointerIntPair.124" = type { %"struct.llvm::detail::PunnedPointer.125" }
%"struct.llvm::detail::PunnedPointer.125" = type { [8 x i8] }
%"class.llvm::PointerIntPair.126" = type { %"struct.llvm::detail::PunnedPointer.127" }
%"struct.llvm::detail::PunnedPointer.127" = type { [8 x i8] }
%"class.clang::CFGBlock::ElementRefImpl" = type { ptr, i64 }
%"class.llvm::IntrusiveRefCntPtr" = type { ptr }
%"class.clang::ento::ExplodedNodeSet" = type { %"class.llvm::SmallSetVector" }
%"class.llvm::SmallSetVector" = type { %"class.llvm::SetVector" }
%"class.llvm::SetVector" = type { %"class.llvm::DenseSet", %"class.llvm::SmallVector.131" }
%"class.llvm::DenseSet" = type { %"class.llvm::detail::DenseSetImpl" }
%"class.llvm::detail::DenseSetImpl" = type { %"class.llvm::DenseMap.128" }
%"class.llvm::DenseMap.128" = type <{ ptr, i32, i32, i32, [4 x i8] }>
%"class.llvm::SmallVector.131" = type { %"class.llvm::SmallVectorImpl.132", %"struct.llvm::SmallVectorStorage.135" }
%"class.llvm::SmallVectorImpl.132" = type { %"class.llvm::SmallVectorTemplateBase.133" }
%"class.llvm::SmallVectorTemplateBase.133" = type { %"class.llvm::SmallVectorTemplateCommon.134" }
%"class.llvm::SmallVectorTemplateCommon.134" = type { %"class.llvm::SmallVectorBase" }
%"class.llvm::SmallVectorBase" = type { ptr, i32, i32 }
%"struct.llvm::SmallVectorStorage.135" = type { [32 x i8] }
%"class.llvm::FoldingSetBase::Node" = type { ptr }
%"class.clang::ento::NodeBuilder" = type { ptr, ptr, i8, i8, ptr }
%"class.clang::ento::ExplodedNode" = type { %"class.llvm::FoldingSetBase::Node", %"class.clang::ProgramPoint", %"class.llvm::IntrusiveRefCntPtr", %"class.clang::ento::ExplodedNode::NodeGroup", %"class.clang::ento::ExplodedNode::NodeGroup", i64 }
%"class.clang::ento::ExplodedNode::NodeGroup" = type { i64 }
%"class.clang::ento::StmtNodeBuilder" = type { %"class.clang::ento::NodeBuilder", ptr }

; Function Attrs: mustprogress nounwind uwtable
define linkonce_odr hidden noundef zeroext i1 @_ZNK5clang4ento12ExplodedNode9NodeGroup7getFlagEv(ptr noundef nonnull align 8 dereferenceable(8) %0) #1 comdat align 2 {
  %2 = alloca ptr, align 8
  store ptr %0, ptr %2, align 8
  %3 = load ptr, ptr %2, align 8
  %4 = getelementptr inbounds nuw %"class.clang::ento::ExplodedNode::NodeGroup", ptr %3, i32 0, i32 0
  %5 = load i64, ptr %4, align 8
  %6 = and i64 %5, 1
  %7 = icmp ne i64 %6, 0
  ret i1 %7
}

; Function Attrs: mustprogress nounwind uwtable
define linkonce_odr hidden noundef zeroext i1 @_ZNK5clang4ento12ExplodedNode6isSinkEv(ptr noundef nonnull align 8 dereferenceable(88) %0) #1 comdat align 2 {
  %2 = alloca ptr, align 8
  store ptr %0, ptr %2, align 8
  %3 = load ptr, ptr %2, align 8
  %4 = getelementptr inbounds nuw %"class.clang::ento::ExplodedNode", ptr %3, i32 0, i32 4
  %5 = call noundef zeroext i1 @_ZNK5clang4ento12ExplodedNode9NodeGroup7getFlagEv(ptr noundef nonnull align 8 dereferenceable(8) %4)
  ret i1 %5
}

; Function Attrs: mustprogress nounwind uwtable
define linkonce_odr hidden noundef ptr @_ZN4llvm25SmallVectorTemplateCommonIPN5clang4ento12ExplodedNodeEvE3endEv(ptr noundef nonnull align 8 dereferenceable(16) %0) #1 comdat align 2 {
  %2 = alloca ptr, align 8
  store ptr %0, ptr %2, align 8
  %3 = load ptr, ptr %2, align 8
  %4 = call noundef ptr @_ZN4llvm25SmallVectorTemplateCommonIPN5clang4ento12ExplodedNodeEvE5beginEv(ptr noundef nonnull align 8 dereferenceable(16) %3)
  %5 = call noundef i64 @_ZNK4llvm15SmallVectorBaseIjE4sizeEv(ptr noundef nonnull align 8 dereferenceable(16) %3)
  %6 = getelementptr inbounds ptr, ptr %4, i64 %5
  ret ptr %6
}

; Function Attrs: mustprogress nounwind uwtable
define linkonce_odr hidden noundef ptr @_ZN4llvm25SmallVectorTemplateCommonIPN5clang4ento12ExplodedNodeEvE5beginEv(ptr noundef nonnull align 8 dereferenceable(16) %0) #1 comdat align 2 {
  %2 = alloca ptr, align 8
  store ptr %0, ptr %2, align 8
  %3 = load ptr, ptr %2, align 8
  %4 = getelementptr inbounds nuw %"class.llvm::SmallVectorBase", ptr %3, i32 0, i32 0
  %5 = load ptr, ptr %4, align 8
  ret ptr %5
}

; Function Attrs: mustprogress nounwind uwtable
define linkonce_odr hidden void @_ZN5clang4ento15ExplodedNodeSet3AddEPNS0_12ExplodedNodeE(ptr noundef nonnull align 8 dereferenceable(72) %0, ptr noundef %1) #1 comdat align 2 {
  %3 = alloca ptr, align 8
  %4 = alloca ptr, align 8
  store ptr %0, ptr %3, align 8
  store ptr %1, ptr %4, align 8
  %5 = load ptr, ptr %3, align 8
  %6 = load ptr, ptr %4, align 8
  %7 = icmp ne ptr %6, null
  br i1 %7, label %8, label %14

8:                                                ; preds = %2
  %9 = load ptr, ptr %4, align 8
  %10 = call noundef zeroext i1 @_ZNK5clang4ento12ExplodedNode6isSinkEv(ptr noundef nonnull align 8 dereferenceable(88) %9)
  br i1 %10, label %14, label %11

11:                                               ; preds = %8
  %12 = getelementptr inbounds nuw %"class.clang::ento::ExplodedNodeSet", ptr %5, i32 0, i32 0
  %13 = call noundef zeroext i1 @_ZN4llvm9SetVectorIPN5clang4ento12ExplodedNodeENS_11SmallVectorIS4_Lj4EEENS_8DenseSetIS4_NS_12DenseMapInfoIS4_vEEEELj4EE6insertERKS4_(ptr noundef nonnull align 8 dereferenceable(72) %12, ptr noundef nonnull align 8 dereferenceable(8) %4)
  br label %14

14:                                               ; preds = %11, %8, %2
  ret void
}

; Function Attrs: mustprogress nounwind uwtable
define linkonce_odr hidden noundef ptr @_ZN4llvm9SetVectorIPN5clang4ento12ExplodedNodeENS_11SmallVectorIS4_Lj4EEENS_8DenseSetIS4_NS_12DenseMapInfoIS4_vEEEELj4EE3endEv(ptr noundef nonnull align 8 dereferenceable(72) %0) #1 comdat align 2 {
  %2 = alloca ptr, align 8
  store ptr %0, ptr %2, align 8
  %3 = load ptr, ptr %2, align 8
  %4 = getelementptr inbounds nuw %"class.llvm::SetVector", ptr %3, i32 0, i32 1
  %5 = call noundef ptr @_ZN4llvm25SmallVectorTemplateCommonIPN5clang4ento12ExplodedNodeEvE3endEv(ptr noundef nonnull align 8 dereferenceable(16) %4)
  ret ptr %5
}

; Function Attrs: mustprogress nounwind uwtable
define linkonce_odr hidden noundef ptr @_ZN4llvm9SetVectorIPN5clang4ento12ExplodedNodeENS_11SmallVectorIS4_Lj4EEENS_8DenseSetIS4_NS_12DenseMapInfoIS4_vEEEELj4EE5beginEv(ptr noundef nonnull align 8 dereferenceable(72) %0) #1 comdat align 2 {
  %2 = alloca ptr, align 8
  store ptr %0, ptr %2, align 8
  %3 = load ptr, ptr %2, align 8
  %4 = getelementptr inbounds nuw %"class.llvm::SetVector", ptr %3, i32 0, i32 1
  %5 = call noundef ptr @_ZN4llvm25SmallVectorTemplateCommonIPN5clang4ento12ExplodedNodeEvE5beginEv(ptr noundef nonnull align 8 dereferenceable(16) %4)
  ret ptr %5
}

; Function Attrs: mustprogress nounwind uwtable
define linkonce_odr hidden void @_ZN5clang4ento11NodeBuilderD2Ev(ptr noundef nonnull align 8 dereferenceable(32) %0) unnamed_addr #1 comdat align 2 {
  %2 = alloca ptr, align 8
  store ptr %0, ptr %2, align 8
  ret void
}

; Function Attrs: mustprogress nounwind uwtable
define linkonce_odr hidden void @_ZN5clang4ento11NodeBuilder8addNodesEPNS0_12ExplodedNodeE(ptr noundef nonnull align 8 dereferenceable(32) %0, ptr noundef %1) #1 comdat align 2 {
  %3 = alloca ptr, align 8
  %4 = alloca ptr, align 8
  store ptr %0, ptr %3, align 8
  store ptr %1, ptr %4, align 8
  %5 = load ptr, ptr %3, align 8
  %6 = getelementptr inbounds nuw %"class.clang::ento::NodeBuilder", ptr %5, i32 0, i32 4
  %7 = load ptr, ptr %6, align 8
  %8 = load ptr, ptr %4, align 8
  call void @_ZN5clang4ento15ExplodedNodeSet3AddEPNS0_12ExplodedNodeE(ptr noundef nonnull align 8 dereferenceable(72) %7, ptr noundef %8)
  ret void
}

; Function Attrs: mustprogress nounwind uwtable
define linkonce_odr hidden noundef ptr @_ZN5clang4ento15ExplodedNodeSet3endEv(ptr noundef nonnull align 8 dereferenceable(72) %0) #1 comdat align 2 {
  %2 = alloca ptr, align 8
  store ptr %0, ptr %2, align 8
  %3 = load ptr, ptr %2, align 8
  %4 = getelementptr inbounds nuw %"class.clang::ento::ExplodedNodeSet", ptr %3, i32 0, i32 0
  %5 = call noundef ptr @_ZN4llvm9SetVectorIPN5clang4ento12ExplodedNodeENS_11SmallVectorIS4_Lj4EEENS_8DenseSetIS4_NS_12DenseMapInfoIS4_vEEEELj4EE3endEv(ptr noundef nonnull align 8 dereferenceable(72) %4)
  ret ptr %5
}

; Function Attrs: mustprogress nounwind uwtable
define linkonce_odr hidden noundef ptr @_ZN5clang4ento15ExplodedNodeSet5beginEv(ptr noundef nonnull align 8 dereferenceable(72) %0) #1 comdat align 2 {
  %2 = alloca ptr, align 8
  store ptr %0, ptr %2, align 8
  %3 = load ptr, ptr %2, align 8
  %4 = getelementptr inbounds nuw %"class.clang::ento::ExplodedNodeSet", ptr %3, i32 0, i32 0
  %5 = call noundef ptr @_ZN4llvm9SetVectorIPN5clang4ento12ExplodedNodeENS_11SmallVectorIS4_Lj4EEENS_8DenseSetIS4_NS_12DenseMapInfoIS4_vEEEELj4EE5beginEv(ptr noundef nonnull align 8 dereferenceable(72) %4)
  ret ptr %5
}

; Function Attrs: mustprogress nounwind uwtable
define dso_local void @_ZN5clang4ento15StmtNodeBuilderD2Ev(ptr noundef nonnull align 8 dereferenceable(40) %0) unnamed_addr #1 align 2 {
  %2 = alloca ptr, align 8
  %3 = alloca ptr, align 8
  %4 = alloca ptr, align 8
  %5 = alloca ptr, align 8
  %6 = alloca ptr, align 8
  store ptr %0, ptr %2, align 8
  %7 = load ptr, ptr %2, align 8
  store ptr getelementptr inbounds inrange(-16, 40) ({ [7 x ptr] }, ptr @_ZTVN5clang4ento15StmtNodeBuilderE, i32 0, i32 0, i32 2), ptr %7, align 8
  %8 = getelementptr inbounds nuw %"class.clang::ento::StmtNodeBuilder", ptr %7, i32 0, i32 1
  %9 = load ptr, ptr %8, align 8
  %10 = icmp ne ptr %9, null
  br i1 %10, label %11, label %32

11:                                               ; preds = %1
  %12 = getelementptr inbounds nuw %"class.clang::ento::NodeBuilder", ptr %7, i32 0, i32 4
  %13 = load ptr, ptr %12, align 8
  store ptr %13, ptr %3, align 8
  %14 = load ptr, ptr %3, align 8
  %15 = call noundef ptr @_ZN5clang4ento15ExplodedNodeSet5beginEv(ptr noundef nonnull align 8 dereferenceable(72) %14)
  store ptr %15, ptr %4, align 8
  %16 = load ptr, ptr %3, align 8
  %17 = call noundef ptr @_ZN5clang4ento15ExplodedNodeSet3endEv(ptr noundef nonnull align 8 dereferenceable(72) %16)
  store ptr %17, ptr %5, align 8
  br label %18

18:                                               ; preds = %28, %11
  %19 = load ptr, ptr %4, align 8
  %20 = load ptr, ptr %5, align 8
  %21 = icmp ne ptr %19, %20
  br i1 %21, label %22, label %31

22:                                               ; preds = %18
  %23 = load ptr, ptr %4, align 8
  %24 = load ptr, ptr %23, align 8
  store ptr %24, ptr %6, align 8
  %25 = getelementptr inbounds nuw %"class.clang::ento::StmtNodeBuilder", ptr %7, i32 0, i32 1
  %26 = load ptr, ptr %25, align 8
  %27 = load ptr, ptr %6, align 8
  call void @_ZN5clang4ento11NodeBuilder8addNodesEPNS0_12ExplodedNodeE(ptr noundef nonnull align 8 dereferenceable(32) %26, ptr noundef %27)
  br label %28

28:                                               ; preds = %22
  %29 = load ptr, ptr %4, align 8
  %30 = getelementptr inbounds ptr, ptr %29, i32 1
  store ptr %30, ptr %4, align 8
  br label %18

31:                                               ; preds = %18
  br label %32

32:                                               ; preds = %31, %1
  call void @_ZN5clang4ento11NodeBuilderD2Ev(ptr noundef nonnull align 8 dereferenceable(32) %7) #9
  ret void
}