; Function Attrs: mustprogress nounwind uwtable
define dso_local void @_ZN5clang4ento15StmtNodeBuilderD2Ev(ptr noundef nonnull align 8 captures(none) dereferenceable(40) initializes((0, 8)) %0) unnamed_addr #0 align 2 {
  %2 = alloca ptr, align 8
  store ptr getelementptr inbounds nuw inrange(-16, 40) (i8, ptr @_ZTVN5clang4ento15StmtNodeBuilderE, i64 16), ptr %0, align 8
  %3 = getelementptr inbounds nuw i8, ptr %0, i64 32
  %4 = load ptr, ptr %3, align 8
  %.not = icmp eq ptr %4, null
  br i1 %.not, label %.loopexit, label %5

5:                                                ; preds = %1
  %6 = getelementptr inbounds nuw i8, ptr %0, i64 24
  %7 = load ptr, ptr %6, align 8
  %8 = getelementptr inbounds nuw i8, ptr %7, i64 24
  %9 = load ptr, ptr %8, align 8
  %10 = tail call noundef i64 @_ZNK4llvm15SmallVectorBaseIjE4sizeEv(ptr noundef nonnull align 8 dereferenceable(16) %8) #16
  %11 = getelementptr inbounds ptr, ptr %9, i64 %10
  %.not89 = icmp eq i64 %10, 0
  br i1 %.not89, label %.loopexit, label %.lr.ph

.lr.ph:                                           ; preds = %5, %_ZN5clang4ento11NodeBuilder8addNodesEPNS0_12ExplodedNodeE.exit
  %.010 = phi ptr [ %22, %_ZN5clang4ento11NodeBuilder8addNodesEPNS0_12ExplodedNodeE.exit ], [ %9, %5 ]
  %12 = load ptr, ptr %.010, align 8
  %13 = load ptr, ptr %3, align 8
  %14 = getelementptr inbounds nuw i8, ptr %13, i64 24
  %15 = load ptr, ptr %14, align 8
  call void @llvm.lifetime.start.p0(i64 8, ptr nonnull %2)
  store ptr %12, ptr %2, align 8
  %.not.i.i = icmp eq ptr %12, null
  br i1 %.not.i.i, label %_ZN5clang4ento11NodeBuilder8addNodesEPNS0_12ExplodedNodeE.exit, label %16

16:                                               ; preds = %.lr.ph
  %17 = getelementptr inbounds nuw i8, ptr %12, i64 72
  %18 = load i64, ptr %17, align 8
  %19 = and i64 %18, 1
  %.not1.i.i = icmp eq i64 %19, 0
  br i1 %.not1.i.i, label %20, label %_ZN5clang4ento11NodeBuilder8addNodesEPNS0_12ExplodedNodeE.exit

20:                                               ; preds = %16
  %21 = call noundef zeroext i1 @_ZN4llvm9SetVectorIPN5clang4ento12ExplodedNodeENS_11SmallVectorIS4_Lj4EEENS_8DenseSetIS4_NS_12DenseMapInfoIS4_vEEEELj4EE6insertERKS4_(ptr noundef nonnull align 8 dereferenceable(72) %15, ptr noundef nonnull align 8 dereferenceable(8) %2)
  br label %_ZN5clang4ento11NodeBuilder8addNodesEPNS0_12ExplodedNodeE.exit

_ZN5clang4ento11NodeBuilder8addNodesEPNS0_12ExplodedNodeE.exit: ; preds = %.lr.ph, %16, %20
  call void @llvm.lifetime.end.p0(i64 8, ptr nonnull %2)
  %22 = getelementptr inbounds nuw i8, ptr %.010, i64 8
  %.not8 = icmp eq ptr %22, %11
  br i1 %.not8, label %.loopexit, label %.lr.ph

.loopexit:                                        ; preds = %_ZN5clang4ento11NodeBuilder8addNodesEPNS0_12ExplodedNodeE.exit, %5, %1
  ret void
}